
lcd.elf:     file format elf32-avr

Sections:
Idx Name          Size      VMA       LMA       File off  Algn
  0 .data         00000010  00800100  00000490  00000524  2**0
                  CONTENTS, ALLOC, LOAD, DATA
  1 .text         00000490  00000000  00000000  00000094  2**1
                  CONTENTS, ALLOC, LOAD, READONLY, CODE
  2 .bss          00000003  00800110  00800110  00000534  2**0
                  ALLOC
  3 .comment      00000030  00000000  00000000  00000534  2**0
                  CONTENTS, READONLY
  4 .note.gnu.avr.deviceinfo 00000040  00000000  00000000  00000564  2**2
                  CONTENTS, READONLY
  5 .debug_aranges 000000b0  00000000  00000000  000005a4  2**0
                  CONTENTS, READONLY, DEBUGGING
  6 .debug_info   000011af  00000000  00000000  00000654  2**0
                  CONTENTS, READONLY, DEBUGGING
  7 .debug_abbrev 00000991  00000000  00000000  00001803  2**0
                  CONTENTS, READONLY, DEBUGGING
  8 .debug_line   00000869  00000000  00000000  00002194  2**0
                  CONTENTS, READONLY, DEBUGGING
  9 .debug_frame  000001a8  00000000  00000000  00002a00  2**2
                  CONTENTS, READONLY, DEBUGGING
 10 .debug_str    000004d0  00000000  00000000  00002ba8  2**0
                  CONTENTS, READONLY, DEBUGGING
 11 .debug_loc    00000846  00000000  00000000  00003078  2**0
                  CONTENTS, READONLY, DEBUGGING
 12 .debug_ranges 00000090  00000000  00000000  000038be  2**0
                  CONTENTS, READONLY, DEBUGGING

Disassembly of section .text:

00000000 <__vectors>:
   0:	0c 94 34 00 	jmp	0x68	; 0x68 <__ctors_end>
   4:	0c 94 51 00 	jmp	0xa2	; 0xa2 <__bad_interrupt>
   8:	0c 94 51 00 	jmp	0xa2	; 0xa2 <__bad_interrupt>
   c:	0c 94 51 00 	jmp	0xa2	; 0xa2 <__bad_interrupt>
  10:	0c 94 51 00 	jmp	0xa2	; 0xa2 <__bad_interrupt>
  14:	0c 94 51 00 	jmp	0xa2	; 0xa2 <__bad_interrupt>
  18:	0c 94 51 00 	jmp	0xa2	; 0xa2 <__bad_interrupt>
  1c:	0c 94 51 00 	jmp	0xa2	; 0xa2 <__bad_interrupt>
  20:	0c 94 51 00 	jmp	0xa2	; 0xa2 <__bad_interrupt>
  24:	0c 94 90 01 	jmp	0x320	; 0x320 <__vector_9>
  28:	0c 94 51 00 	jmp	0xa2	; 0xa2 <__bad_interrupt>
  2c:	0c 94 51 00 	jmp	0xa2	; 0xa2 <__bad_interrupt>
  30:	0c 94 51 00 	jmp	0xa2	; 0xa2 <__bad_interrupt>
  34:	0c 94 51 00 	jmp	0xa2	; 0xa2 <__bad_interrupt>
  38:	0c 94 51 00 	jmp	0xa2	; 0xa2 <__bad_interrupt>
  3c:	0c 94 51 00 	jmp	0xa2	; 0xa2 <__bad_interrupt>
  40:	0c 94 51 00 	jmp	0xa2	; 0xa2 <__bad_interrupt>
  44:	0c 94 51 00 	jmp	0xa2	; 0xa2 <__bad_interrupt>
  48:	0c 94 51 00 	jmp	0xa2	; 0xa2 <__bad_interrupt>
  4c:	0c 94 51 00 	jmp	0xa2	; 0xa2 <__bad_interrupt>
  50:	0c 94 51 00 	jmp	0xa2	; 0xa2 <__bad_interrupt>
  54:	0c 94 51 00 	jmp	0xa2	; 0xa2 <__bad_interrupt>
  58:	0c 94 51 00 	jmp	0xa2	; 0xa2 <__bad_interrupt>
  5c:	0c 94 51 00 	jmp	0xa2	; 0xa2 <__bad_interrupt>
  60:	0c 94 51 00 	jmp	0xa2	; 0xa2 <__bad_interrupt>
  64:	0c 94 51 00 	jmp	0xa2	; 0xa2 <__bad_interrupt>

00000068 <__ctors_end>:
  68:	11 24       	eor	r1, r1
  6a:	1f be       	out	0x3f, r1	; 63
  6c:	cf ef       	ldi	r28, 0xFF	; 255
  6e:	d8 e0       	ldi	r29, 0x08	; 8
  70:	de bf       	out	0x3e, r29	; 62
  72:	cd bf       	out	0x3d, r28	; 61

00000074 <__do_copy_data>:
  74:	11 e0       	ldi	r17, 0x01	; 1
  76:	a0 e0       	ldi	r26, 0x00	; 0
  78:	b1 e0       	ldi	r27, 0x01	; 1
  7a:	e0 e9       	ldi	r30, 0x90	; 144
  7c:	f4 e0       	ldi	r31, 0x04	; 4
  7e:	02 c0       	rjmp	.+4      	; 0x84 <__do_copy_data+0x10>
  80:	05 90       	lpm	r0, Z+
  82:	0d 92       	st	X+, r0
  84:	a0 31       	cpi	r26, 0x10	; 16
  86:	b1 07       	cpc	r27, r17
  88:	d9 f7       	brne	.-10     	; 0x80 <__do_copy_data+0xc>

0000008a <__do_clear_bss>:
  8a:	21 e0       	ldi	r18, 0x01	; 1
  8c:	a0 e1       	ldi	r26, 0x10	; 16
  8e:	b1 e0       	ldi	r27, 0x01	; 1
  90:	01 c0       	rjmp	.+2      	; 0x94 <.do_clear_bss_start>

00000092 <.do_clear_bss_loop>:
  92:	1d 92       	st	X+, r1

00000094 <.do_clear_bss_start>:
  94:	a3 31       	cpi	r26, 0x13	; 19
  96:	b2 07       	cpc	r27, r18
  98:	e1 f7       	brne	.-8      	; 0x92 <.do_clear_bss_loop>
  9a:	0e 94 4c 01 	call	0x298	; 0x298 <main>
  9e:	0c 94 46 02 	jmp	0x48c	; 0x48c <_exit>

000000a2 <__bad_interrupt>:
  a2:	0c 94 00 00 	jmp	0	; 0x0 <__vectors>

000000a6 <toggle_e>:

    while ( (c = pgm_read_byte(progmem_s++)) )
    {
        lcd_putc(c);
    }
}/* lcd_puts_p */
  a6:	85 b1       	in	r24, 0x05	; 5
  a8:	82 60       	ori	r24, 0x02	; 2
  aa:	85 b9       	out	0x05, r24	; 5
  ac:	85 e0       	ldi	r24, 0x05	; 5
  ae:	8a 95       	dec	r24
  b0:	f1 f7       	brne	.-4      	; 0xae <toggle_e+0x8>
  b2:	00 00       	nop
  b4:	85 b1       	in	r24, 0x05	; 5
  b6:	8d 7f       	andi	r24, 0xFD	; 253
  b8:	85 b9       	out	0x05, r24	; 5
  ba:	08 95       	ret

000000bc <lcd_write>:
  bc:	cf 93       	push	r28
  be:	c8 2f       	mov	r28, r24
  c0:	66 23       	and	r22, r22
  c2:	21 f0       	breq	.+8      	; 0xcc <lcd_write+0x10>
  c4:	85 b1       	in	r24, 0x05	; 5
  c6:	81 60       	ori	r24, 0x01	; 1
  c8:	85 b9       	out	0x05, r24	; 5
  ca:	03 c0       	rjmp	.+6      	; 0xd2 <lcd_write+0x16>
  cc:	85 b1       	in	r24, 0x05	; 5
  ce:	8e 7f       	andi	r24, 0xFE	; 254
  d0:	85 b9       	out	0x05, r24	; 5
  d2:	8a b1       	in	r24, 0x0a	; 10
  d4:	80 61       	ori	r24, 0x10	; 16
  d6:	8a b9       	out	0x0a, r24	; 10
  d8:	8a b1       	in	r24, 0x0a	; 10
  da:	80 62       	ori	r24, 0x20	; 32
  dc:	8a b9       	out	0x0a, r24	; 10
  de:	8a b1       	in	r24, 0x0a	; 10
  e0:	80 64       	ori	r24, 0x40	; 64
  e2:	8a b9       	out	0x0a, r24	; 10
  e4:	8a b1       	in	r24, 0x0a	; 10
  e6:	80 68       	ori	r24, 0x80	; 128
  e8:	8a b9       	out	0x0a, r24	; 10
  ea:	8b b1       	in	r24, 0x0b	; 11
  ec:	8f 77       	andi	r24, 0x7F	; 127
  ee:	8b b9       	out	0x0b, r24	; 11
  f0:	8b b1       	in	r24, 0x0b	; 11
  f2:	8f 7b       	andi	r24, 0xBF	; 191
  f4:	8b b9       	out	0x0b, r24	; 11
  f6:	8b b1       	in	r24, 0x0b	; 11
  f8:	8f 7d       	andi	r24, 0xDF	; 223
  fa:	8b b9       	out	0x0b, r24	; 11
  fc:	8b b1       	in	r24, 0x0b	; 11
  fe:	8f 7e       	andi	r24, 0xEF	; 239
 100:	8b b9       	out	0x0b, r24	; 11
 102:	cc 23       	and	r28, r28
 104:	1c f4       	brge	.+6      	; 0x10c <lcd_write+0x50>
 106:	8b b1       	in	r24, 0x0b	; 11
 108:	80 68       	ori	r24, 0x80	; 128
 10a:	8b b9       	out	0x0b, r24	; 11
 10c:	c6 ff       	sbrs	r28, 6
 10e:	03 c0       	rjmp	.+6      	; 0x116 <lcd_write+0x5a>
 110:	8b b1       	in	r24, 0x0b	; 11
 112:	80 64       	ori	r24, 0x40	; 64
 114:	8b b9       	out	0x0b, r24	; 11
 116:	c5 ff       	sbrs	r28, 5
 118:	03 c0       	rjmp	.+6      	; 0x120 <lcd_write+0x64>
 11a:	8b b1       	in	r24, 0x0b	; 11
 11c:	80 62       	ori	r24, 0x20	; 32
 11e:	8b b9       	out	0x0b, r24	; 11
 120:	c4 ff       	sbrs	r28, 4
 122:	03 c0       	rjmp	.+6      	; 0x12a <lcd_write+0x6e>
 124:	8b b1       	in	r24, 0x0b	; 11
 126:	80 61       	ori	r24, 0x10	; 16
 128:	8b b9       	out	0x0b, r24	; 11
 12a:	0e 94 53 00 	call	0xa6	; 0xa6 <toggle_e>
 12e:	8b b1       	in	r24, 0x0b	; 11
 130:	8f 77       	andi	r24, 0x7F	; 127
 132:	8b b9       	out	0x0b, r24	; 11
 134:	8b b1       	in	r24, 0x0b	; 11
 136:	8f 7b       	andi	r24, 0xBF	; 191
 138:	8b b9       	out	0x0b, r24	; 11
 13a:	8b b1       	in	r24, 0x0b	; 11
 13c:	8f 7d       	andi	r24, 0xDF	; 223
 13e:	8b b9       	out	0x0b, r24	; 11
 140:	8b b1       	in	r24, 0x0b	; 11
 142:	8f 7e       	andi	r24, 0xEF	; 239
 144:	8b b9       	out	0x0b, r24	; 11
 146:	c3 ff       	sbrs	r28, 3
 148:	03 c0       	rjmp	.+6      	; 0x150 <lcd_write+0x94>
 14a:	8b b1       	in	r24, 0x0b	; 11
 14c:	80 68       	ori	r24, 0x80	; 128
 14e:	8b b9       	out	0x0b, r24	; 11
 150:	c2 ff       	sbrs	r28, 2
 152:	03 c0       	rjmp	.+6      	; 0x15a <lcd_write+0x9e>
 154:	8b b1       	in	r24, 0x0b	; 11
 156:	80 64       	ori	r24, 0x40	; 64
 158:	8b b9       	out	0x0b, r24	; 11
 15a:	c1 ff       	sbrs	r28, 1
 15c:	03 c0       	rjmp	.+6      	; 0x164 <lcd_write+0xa8>
 15e:	8b b1       	in	r24, 0x0b	; 11
 160:	80 62       	ori	r24, 0x20	; 32
 162:	8b b9       	out	0x0b, r24	; 11
 164:	c0 ff       	sbrs	r28, 0
 166:	03 c0       	rjmp	.+6      	; 0x16e <lcd_write+0xb2>
 168:	8b b1       	in	r24, 0x0b	; 11
 16a:	80 61       	ori	r24, 0x10	; 16
 16c:	8b b9       	out	0x0b, r24	; 11
 16e:	0e 94 53 00 	call	0xa6	; 0xa6 <toggle_e>
 172:	8b b1       	in	r24, 0x0b	; 11
 174:	80 61       	ori	r24, 0x10	; 16
 176:	8b b9       	out	0x0b, r24	; 11
 178:	8b b1       	in	r24, 0x0b	; 11
 17a:	80 62       	ori	r24, 0x20	; 32
 17c:	8b b9       	out	0x0b, r24	; 11
 17e:	8b b1       	in	r24, 0x0b	; 11
 180:	80 64       	ori	r24, 0x40	; 64
 182:	8b b9       	out	0x0b, r24	; 11
 184:	8b b1       	in	r24, 0x0b	; 11
 186:	80 68       	ori	r24, 0x80	; 128
 188:	8b b9       	out	0x0b, r24	; 11
 18a:	87 eb       	ldi	r24, 0xB7	; 183
 18c:	9b e0       	ldi	r25, 0x0B	; 11
 18e:	01 97       	sbiw	r24, 0x01	; 1
 190:	f1 f7       	brne	.-4      	; 0x18e <lcd_write+0xd2>
 192:	00 c0       	rjmp	.+0      	; 0x194 <lcd_write+0xd8>
 194:	00 00       	nop
 196:	cf 91       	pop	r28
 198:	08 95       	ret

0000019a <lcd_command>:
 19a:	60 e0       	ldi	r22, 0x00	; 0
 19c:	0e 94 5e 00 	call	0xbc	; 0xbc <lcd_write>
 1a0:	08 95       	ret

000001a2 <lcd_data>:
 1a2:	61 e0       	ldi	r22, 0x01	; 1
 1a4:	0e 94 5e 00 	call	0xbc	; 0xbc <lcd_write>
 1a8:	08 95       	ret

000001aa <lcd_gotoxy>:
 1aa:	61 11       	cpse	r22, r1
 1ac:	04 c0       	rjmp	.+8      	; 0x1b6 <lcd_gotoxy+0xc>
 1ae:	80 58       	subi	r24, 0x80	; 128
 1b0:	0e 94 cd 00 	call	0x19a	; 0x19a <lcd_command>
 1b4:	08 95       	ret
 1b6:	80 54       	subi	r24, 0x40	; 64
 1b8:	0e 94 cd 00 	call	0x19a	; 0x19a <lcd_command>
 1bc:	08 95       	ret

000001be <lcd_clrscr>:
 1be:	81 e0       	ldi	r24, 0x01	; 1
 1c0:	0e 94 cd 00 	call	0x19a	; 0x19a <lcd_command>
 1c4:	08 95       	ret

000001c6 <lcd_putc>:
 1c6:	61 e0       	ldi	r22, 0x01	; 1
 1c8:	0e 94 5e 00 	call	0xbc	; 0xbc <lcd_write>
 1cc:	08 95       	ret

000001ce <lcd_puts>:
 1ce:	cf 93       	push	r28
 1d0:	df 93       	push	r29
 1d2:	fc 01       	movw	r30, r24
 1d4:	03 c0       	rjmp	.+6      	; 0x1dc <lcd_puts+0xe>
 1d6:	0e 94 e3 00 	call	0x1c6	; 0x1c6 <lcd_putc>
 1da:	fe 01       	movw	r30, r28
 1dc:	ef 01       	movw	r28, r30
 1de:	21 96       	adiw	r28, 0x01	; 1
 1e0:	80 81       	ld	r24, Z
 1e2:	81 11       	cpse	r24, r1
 1e4:	f8 cf       	rjmp	.-16     	; 0x1d6 <lcd_puts+0x8>
 1e6:	df 91       	pop	r29
 1e8:	cf 91       	pop	r28
 1ea:	08 95       	ret

000001ec <lcd_init>:
*                  LCD_DISP_ON_CURSOR      display on, cursor on
*                  LCD_DISP_CURSOR_BLINK   display on, cursor on flashing
*  Returns:  none
*************************************************************************/
void lcd_init(uint8_t dispAttr)
{
 1ec:	cf 93       	push	r28
 1ee:	c8 2f       	mov	r28, r24
        DDR(LCD_E_PORT)     |= _BV(LCD_E_PIN);
    }
    else
    {
        /* configure all port bits as output (LCD data and control lines on different ports */
        DDR(LCD_RS_PORT)    |= _BV(LCD_RS_PIN);
 1f0:	84 b1       	in	r24, 0x04	; 4
 1f2:	81 60       	ori	r24, 0x01	; 1
 1f4:	84 b9       	out	0x04, r24	; 4
        DDR(LCD_RW_PORT)    |= _BV(LCD_RW_PIN);
 1f6:	8a b1       	in	r24, 0x0a	; 10
 1f8:	80 62       	ori	r24, 0x20	; 32
 1fa:	8a b9       	out	0x0a, r24	; 10
        DDR(LCD_E_PORT)     |= _BV(LCD_E_PIN);
 1fc:	84 b1       	in	r24, 0x04	; 4
 1fe:	82 60       	ori	r24, 0x02	; 2
 200:	84 b9       	out	0x04, r24	; 4
        DDR(LCD_DATA0_PORT) |= _BV(LCD_DATA0_PIN);
 202:	8a b1       	in	r24, 0x0a	; 10
 204:	80 61       	ori	r24, 0x10	; 16
 206:	8a b9       	out	0x0a, r24	; 10
        DDR(LCD_DATA1_PORT) |= _BV(LCD_DATA1_PIN);
 208:	8a b1       	in	r24, 0x0a	; 10
 20a:	80 62       	ori	r24, 0x20	; 32
 20c:	8a b9       	out	0x0a, r24	; 10
        DDR(LCD_DATA2_PORT) |= _BV(LCD_DATA2_PIN);
 20e:	8a b1       	in	r24, 0x0a	; 10
 210:	80 64       	ori	r24, 0x40	; 64
 212:	8a b9       	out	0x0a, r24	; 10
        DDR(LCD_DATA3_PORT) |= _BV(LCD_DATA3_PIN);
 214:	8a b1       	in	r24, 0x0a	; 10
 216:	80 68       	ori	r24, 0x80	; 128
 218:	8a b9       	out	0x0a, r24	; 10
	#else
		//round up by default
		__ticks_dc = (uint32_t)(ceil(fabs(__tmp)));
	#endif

	__builtin_avr_delay_cycles(__ticks_dc);
 21a:	8f ef       	ldi	r24, 0xFF	; 255
 21c:	99 ef       	ldi	r25, 0xF9	; 249
 21e:	01 97       	sbiw	r24, 0x01	; 1
 220:	f1 f7       	brne	.-4      	; 0x21e <lcd_init+0x32>
 222:	00 c0       	rjmp	.+0      	; 0x224 <lcd_init+0x38>
 224:	00 00       	nop
    }
    delay(LCD_DELAY_BOOTUP); /* wait 16ms or more after power-on       */

    /* initial write to lcd is 8bit */
    LCD_DATA1_PORT |= _BV(LCD_DATA1_PIN); // LCD_FUNCTION>>4;
 226:	8b b1       	in	r24, 0x0b	; 11
 228:	80 62       	ori	r24, 0x20	; 32
 22a:	8b b9       	out	0x0b, r24	; 11
    LCD_DATA0_PORT |= _BV(LCD_DATA0_PIN); // LCD_FUNCTION_8BIT>>4;
 22c:	8b b1       	in	r24, 0x0b	; 11
 22e:	80 61       	ori	r24, 0x10	; 16
 230:	8b b9       	out	0x0b, r24	; 11
    lcd_e_toggle();
 232:	0e 94 53 00 	call	0xa6	; 0xa6 <toggle_e>
 236:	8f e1       	ldi	r24, 0x1F	; 31
 238:	9e e4       	ldi	r25, 0x4E	; 78
 23a:	01 97       	sbiw	r24, 0x01	; 1
 23c:	f1 f7       	brne	.-4      	; 0x23a <lcd_init+0x4e>
 23e:	00 c0       	rjmp	.+0      	; 0x240 <lcd_init+0x54>
 240:	00 00       	nop
    delay(LCD_DELAY_INIT); /* delay, busy flag can't be checked here */

    /* repeat last command */
    lcd_e_toggle();
 242:	0e 94 53 00 	call	0xa6	; 0xa6 <toggle_e>
 246:	8f ef       	ldi	r24, 0xFF	; 255
 248:	90 e0       	ldi	r25, 0x00	; 0
 24a:	01 97       	sbiw	r24, 0x01	; 1
 24c:	f1 f7       	brne	.-4      	; 0x24a <lcd_init+0x5e>
 24e:	00 c0       	rjmp	.+0      	; 0x250 <lcd_init+0x64>
 250:	00 00       	nop
    delay(LCD_DELAY_INIT_REP); /* delay, busy flag can't be checked here */

    /* repeat last command a third time */
    lcd_e_toggle();
 252:	0e 94 53 00 	call	0xa6	; 0xa6 <toggle_e>
 256:	8f ef       	ldi	r24, 0xFF	; 255
 258:	90 e0       	ldi	r25, 0x00	; 0
 25a:	01 97       	sbiw	r24, 0x01	; 1
 25c:	f1 f7       	brne	.-4      	; 0x25a <lcd_init+0x6e>
 25e:	00 c0       	rjmp	.+0      	; 0x260 <lcd_init+0x74>
 260:	00 00       	nop
    delay(LCD_DELAY_INIT_REP); /* delay, busy flag can't be checked here */

    /* now configure for 4bit mode */
    LCD_DATA0_PORT &= ~_BV(LCD_DATA0_PIN); // LCD_FUNCTION_4BIT_1LINE>>4
 262:	8b b1       	in	r24, 0x0b	; 11
 264:	8f 7e       	andi	r24, 0xEF	; 239
 266:	8b b9       	out	0x0b, r24	; 11
    lcd_e_toggle();
 268:	0e 94 53 00 	call	0xa6	; 0xa6 <toggle_e>
 26c:	8f ef       	ldi	r24, 0xFF	; 255
 26e:	90 e0       	ldi	r25, 0x00	; 0
 270:	01 97       	sbiw	r24, 0x01	; 1
 272:	f1 f7       	brne	.-4      	; 0x270 <lcd_init+0x84>
 274:	00 c0       	rjmp	.+0      	; 0x276 <lcd_init+0x8a>
 276:	00 00       	nop
    /* Display with KS0073 controller requires special commands for enabling 4 line mode */
    lcd_command(KS0073_EXTENDED_FUNCTION_REGISTER_ON);
    lcd_command(KS0073_4LINES_MODE);
    lcd_command(KS0073_EXTENDED_FUNCTION_REGISTER_OFF);
    #else
    lcd_command(LCD_FUNCTION_DEFAULT); /* function set: display lines  */
 278:	88 e2       	ldi	r24, 0x28	; 40
 27a:	0e 94 cd 00 	call	0x19a	; 0x19a <lcd_command>
    #endif
    lcd_command(LCD_DISP_OFF);     /* display off                  */
 27e:	88 e0       	ldi	r24, 0x08	; 8
 280:	0e 94 cd 00 	call	0x19a	; 0x19a <lcd_command>
    lcd_clrscr();                  /* display clear                */
 284:	0e 94 df 00 	call	0x1be	; 0x1be <lcd_clrscr>
    lcd_command(LCD_MODE_DEFAULT); /* set entry mode               */
 288:	86 e0       	ldi	r24, 0x06	; 6
 28a:	0e 94 cd 00 	call	0x19a	; 0x19a <lcd_command>
    lcd_command(dispAttr);         /* display/cursor control       */
 28e:	8c 2f       	mov	r24, r28
 290:	0e 94 cd 00 	call	0x19a	; 0x19a <lcd_command>
}/* lcd_init */
 294:	cf 91       	pop	r28
 296:	08 95       	ret

00000298 <main>:
	0b00011
};
int main(void)
{
    // Initialize LCD display
    lcd_init(LCD_DISP_ON);
 298:	8c e0       	ldi	r24, 0x0C	; 12
 29a:	0e 94 f6 00 	call	0x1ec	; 0x1ec <lcd_init>
	
	// Initialize LCD display
	lcd_init(LCD_DISP_ON);
 29e:	8c e0       	ldi	r24, 0x0C	; 12
 2a0:	0e 94 f6 00 	call	0x1ec	; 0x1ec <lcd_init>

	// Set pointer to beginning of CGRAM memory
	lcd_command(1 << LCD_CGRAM);
 2a4:	80 e4       	ldi	r24, 0x40	; 64
 2a6:	0e 94 cd 00 	call	0x19a	; 0x19a <lcd_command>
	for (uint8_t i = 0; i < 8; i++)
 2aa:	c0 e0       	ldi	r28, 0x00	; 0
 2ac:	08 c0       	rjmp	.+16     	; 0x2be <main+0x26>
	{
		// Store all new chars to memory line by line
		lcd_data(customChar[i]);
 2ae:	ec 2f       	mov	r30, r28
 2b0:	f0 e0       	ldi	r31, 0x00	; 0
 2b2:	e0 50       	subi	r30, 0x00	; 0
 2b4:	ff 4f       	sbci	r31, 0xFF	; 255
 2b6:	80 81       	ld	r24, Z
 2b8:	0e 94 d1 00 	call	0x1a2	; 0x1a2 <lcd_data>
	// Initialize LCD display
	lcd_init(LCD_DISP_ON);

	// Set pointer to beginning of CGRAM memory
	lcd_command(1 << LCD_CGRAM);
	for (uint8_t i = 0; i < 8; i++)
 2bc:	cf 5f       	subi	r28, 0xFF	; 255
 2be:	c8 30       	cpi	r28, 0x08	; 8
 2c0:	b0 f3       	brcs	.-20     	; 0x2ae <main+0x16>
	{
		// Store all new chars to memory line by line
		lcd_data(customChar[i]);
	}
	// Set DDRAM address
	lcd_command(1 << LCD_DDRAM);
 2c2:	80 e8       	ldi	r24, 0x80	; 128
 2c4:	0e 94 cd 00 	call	0x19a	; 0x19a <lcd_command>
	    
	// Display first custom character
	lcd_putc(0);
 2c8:	80 e0       	ldi	r24, 0x00	; 0
 2ca:	0e 94 e3 00 	call	0x1c6	; 0x1c6 <lcd_putc>


    // Put string(s) at LCD display
    lcd_gotoxy(1, 0);
 2ce:	60 e0       	ldi	r22, 0x00	; 0
 2d0:	81 e0       	ldi	r24, 0x01	; 1
 2d2:	0e 94 d5 00 	call	0x1aa	; 0x1aa <lcd_gotoxy>
    lcd_puts("00:00.0");
 2d6:	88 e0       	ldi	r24, 0x08	; 8
 2d8:	91 e0       	ldi	r25, 0x01	; 1
 2da:	0e 94 e7 00 	call	0x1ce	; 0x1ce <lcd_puts>
	lcd_gotoxy(10, 0);
 2de:	60 e0       	ldi	r22, 0x00	; 0
 2e0:	8a e0       	ldi	r24, 0x0A	; 10
 2e2:	0e 94 d5 00 	call	0x1aa	; 0x1aa <lcd_gotoxy>
    lcd_putc('a');
 2e6:	81 e6       	ldi	r24, 0x61	; 97
 2e8:	0e 94 e3 00 	call	0x1c6	; 0x1c6 <lcd_putc>
	lcd_gotoxy(1, 1);
 2ec:	61 e0       	ldi	r22, 0x01	; 1
 2ee:	81 e0       	ldi	r24, 0x01	; 1
 2f0:	0e 94 d5 00 	call	0x1aa	; 0x1aa <lcd_gotoxy>
	lcd_putc('b');
 2f4:	82 e6       	ldi	r24, 0x62	; 98
 2f6:	0e 94 e3 00 	call	0x1c6	; 0x1c6 <lcd_putc>
	lcd_gotoxy(10, 1);
 2fa:	61 e0       	ldi	r22, 0x01	; 1
 2fc:	8a e0       	ldi	r24, 0x0A	; 10
 2fe:	0e 94 d5 00 	call	0x1aa	; 0x1aa <lcd_gotoxy>
	lcd_putc('c');
 302:	83 e6       	ldi	r24, 0x63	; 99
 304:	0e 94 e3 00 	call	0x1c6	; 0x1c6 <lcd_putc>

    // Configure 8-bit Timer/Counter2 for Stopwatch
    // Set the overflow prescaler to 16 ms and enable interrupt
	TIM2_overflow_16ms();
 308:	e1 eb       	ldi	r30, 0xB1	; 177
 30a:	f0 e0       	ldi	r31, 0x00	; 0
 30c:	80 81       	ld	r24, Z
 30e:	87 60       	ori	r24, 0x07	; 7
 310:	80 83       	st	Z, r24
	TIM2_overflow_interrupt_enable();
 312:	e0 e7       	ldi	r30, 0x70	; 112
 314:	f0 e0       	ldi	r31, 0x00	; 0
 316:	80 81       	ld	r24, Z
 318:	81 60       	ori	r24, 0x01	; 1
 31a:	80 83       	st	Z, r24

    // Enables interrupts by setting the global interrupt mask
    sei();
 31c:	78 94       	sei
 31e:	ff cf       	rjmp	.-2      	; 0x31e <main+0x86>

00000320 <__vector_9>:
 * Function: Timer/Counter2 overflow interrupt
 * Purpose:  Update the stopwatch on LCD display every sixth overflow,
 *           ie approximately every 100 ms (6 x 16 ms = 100 ms).
 **********************************************************************/
ISR(TIMER2_OVF_vect)
{
 320:	1f 92       	push	r1
 322:	0f 92       	push	r0
 324:	0f b6       	in	r0, 0x3f	; 63
 326:	0f 92       	push	r0
 328:	11 24       	eor	r1, r1
 32a:	2f 93       	push	r18
 32c:	3f 93       	push	r19
 32e:	4f 93       	push	r20
 330:	5f 93       	push	r21
 332:	6f 93       	push	r22
 334:	7f 93       	push	r23
 336:	8f 93       	push	r24
 338:	9f 93       	push	r25
 33a:	af 93       	push	r26
 33c:	bf 93       	push	r27
 33e:	ef 93       	push	r30
 340:	ff 93       	push	r31
 342:	cf 93       	push	r28
 344:	df 93       	push	r29
 346:	00 d0       	rcall	.+0      	; 0x348 <__vector_9+0x28>
 348:	cd b7       	in	r28, 0x3d	; 61
 34a:	de b7       	in	r29, 0x3e	; 62
    static uint8_t number_of_overflows = 0;
	static uint8_t tens = 0;        // Tenths of a second
	static uint8_t secs = 0;        // Seconds
	char lcd_string[2] = "  ";      // String for converting numbers by itoa()
 34c:	80 e2       	ldi	r24, 0x20	; 32
 34e:	90 e2       	ldi	r25, 0x20	; 32
 350:	9a 83       	std	Y+2, r25	; 0x02
 352:	89 83       	std	Y+1, r24	; 0x01

	
    number_of_overflows++;
 354:	80 91 12 01 	lds	r24, 0x0112	; 0x800112 <number_of_overflows.1951>
 358:	8f 5f       	subi	r24, 0xFF	; 255
 35a:	80 93 12 01 	sts	0x0112, r24	; 0x800112 <number_of_overflows.1951>
    if (number_of_overflows >= 6)
 35e:	86 30       	cpi	r24, 0x06	; 6
 360:	08 f4       	brcc	.+2      	; 0x364 <__vector_9+0x44>
 362:	4a c0       	rjmp	.+148    	; 0x3f8 <__vector_9+0xd8>
    {
        // Do this every 6 x 16 ms = 100 ms
        number_of_overflows = 0;
 364:	10 92 12 01 	sts	0x0112, r1	; 0x800112 <number_of_overflows.1951>

        // WRITE YOUR CODE HERE
		tens++;
 368:	80 91 11 01 	lds	r24, 0x0111	; 0x800111 <tens.1952>
 36c:	8f 5f       	subi	r24, 0xFF	; 255
 36e:	80 93 11 01 	sts	0x0111, r24	; 0x800111 <tens.1952>
		if(tens >= 10){
 372:	8a 30       	cpi	r24, 0x0A	; 10
 374:	58 f0       	brcs	.+22     	; 0x38c <__vector_9+0x6c>
			tens = 0;
 376:	10 92 11 01 	sts	0x0111, r1	; 0x800111 <tens.1952>
			secs++;
 37a:	80 91 10 01 	lds	r24, 0x0110	; 0x800110 <__data_end>
 37e:	8f 5f       	subi	r24, 0xFF	; 255
 380:	80 93 10 01 	sts	0x0110, r24	; 0x800110 <__data_end>
			if (secs >= 60)
 384:	8c 33       	cpi	r24, 0x3C	; 60
 386:	10 f0       	brcs	.+4      	; 0x38c <__vector_9+0x6c>
			{
				secs = 0;
 388:	10 92 10 01 	sts	0x0110, r1	; 0x800110 <__data_end>
			}

		}
		itoa(tens, lcd_string, 10);
 38c:	80 91 11 01 	lds	r24, 0x0111	; 0x800111 <tens.1952>
    } else if (__radix < 2 || __radix > 36) {
	*__s = 0;
	return __s;
    } else {
	extern char *__itoa_ncheck (int, char *, unsigned char);
	return __itoa_ncheck (__val, __s, __radix);
 390:	4a e0       	ldi	r20, 0x0A	; 10
 392:	be 01       	movw	r22, r28
 394:	6f 5f       	subi	r22, 0xFF	; 255
 396:	7f 4f       	sbci	r23, 0xFF	; 255
 398:	90 e0       	ldi	r25, 0x00	; 0
 39a:	0e 94 11 02 	call	0x422	; 0x422 <__itoa_ncheck>
		//Display tenths of seconds
		lcd_gotoxy(8, 0);
 39e:	60 e0       	ldi	r22, 0x00	; 0
 3a0:	88 e0       	ldi	r24, 0x08	; 8
 3a2:	0e 94 d5 00 	call	0x1aa	; 0x1aa <lcd_gotoxy>
		lcd_puts(lcd_string);
 3a6:	ce 01       	movw	r24, r28
 3a8:	01 96       	adiw	r24, 0x01	; 1
 3aa:	0e 94 e7 00 	call	0x1ce	; 0x1ce <lcd_puts>
		//Display seconds
		itoa(secs, lcd_string, 10);
 3ae:	80 91 10 01 	lds	r24, 0x0110	; 0x800110 <__data_end>
 3b2:	4a e0       	ldi	r20, 0x0A	; 10
 3b4:	be 01       	movw	r22, r28
 3b6:	6f 5f       	subi	r22, 0xFF	; 255
 3b8:	7f 4f       	sbci	r23, 0xFF	; 255
 3ba:	90 e0       	ldi	r25, 0x00	; 0
 3bc:	0e 94 11 02 	call	0x422	; 0x422 <__itoa_ncheck>
		if (secs <10){
 3c0:	80 91 10 01 	lds	r24, 0x0110	; 0x800110 <__data_end>
 3c4:	8a 30       	cpi	r24, 0x0A	; 10
 3c6:	28 f4       	brcc	.+10     	; 0x3d2 <__vector_9+0xb2>
			lcd_gotoxy(5, 0);			
 3c8:	60 e0       	ldi	r22, 0x00	; 0
 3ca:	85 e0       	ldi	r24, 0x05	; 5
 3cc:	0e 94 d5 00 	call	0x1aa	; 0x1aa <lcd_gotoxy>
 3d0:	04 c0       	rjmp	.+8      	; 0x3da <__vector_9+0xba>
		}
		else {
			lcd_gotoxy(4, 0);
 3d2:	60 e0       	ldi	r22, 0x00	; 0
 3d4:	84 e0       	ldi	r24, 0x04	; 4
 3d6:	0e 94 d5 00 	call	0x1aa	; 0x1aa <lcd_gotoxy>
		}
		lcd_puts(lcd_string);
 3da:	ce 01       	movw	r24, r28
 3dc:	01 96       	adiw	r24, 0x01	; 1
 3de:	0e 94 e7 00 	call	0x1ce	; 0x1ce <lcd_puts>
		if (secs == 60)
 3e2:	80 91 10 01 	lds	r24, 0x0110	; 0x800110 <__data_end>
 3e6:	8c 33       	cpi	r24, 0x3C	; 60
 3e8:	39 f4       	brne	.+14     	; 0x3f8 <__vector_9+0xd8>
		{
			lcd_gotoxy(4, 0);
 3ea:	60 e0       	ldi	r22, 0x00	; 0
 3ec:	84 e0       	ldi	r24, 0x04	; 4
 3ee:	0e 94 d5 00 	call	0x1aa	; 0x1aa <lcd_gotoxy>
			lcd_putc('0');
 3f2:	80 e3       	ldi	r24, 0x30	; 48
 3f4:	0e 94 e3 00 	call	0x1c6	; 0x1c6 <lcd_putc>
		}
		
    }
    // Else do nothing and exit the ISR
 3f8:	0f 90       	pop	r0
 3fa:	0f 90       	pop	r0
 3fc:	df 91       	pop	r29
 3fe:	cf 91       	pop	r28
 400:	ff 91       	pop	r31
 402:	ef 91       	pop	r30
 404:	bf 91       	pop	r27
 406:	af 91       	pop	r26
 408:	9f 91       	pop	r25
 40a:	8f 91       	pop	r24
 40c:	7f 91       	pop	r23
 40e:	6f 91       	pop	r22
 410:	5f 91       	pop	r21
 412:	4f 91       	pop	r20
 414:	3f 91       	pop	r19
 416:	2f 91       	pop	r18
 418:	0f 90       	pop	r0
 41a:	0f be       	out	0x3f, r0	; 63
 41c:	0f 90       	pop	r0
 41e:	1f 90       	pop	r1
 420:	18 95       	reti

00000422 <__itoa_ncheck>:
 422:	bb 27       	eor	r27, r27
 424:	4a 30       	cpi	r20, 0x0A	; 10
 426:	31 f4       	brne	.+12     	; 0x434 <__itoa_ncheck+0x12>
 428:	99 23       	and	r25, r25
 42a:	22 f4       	brpl	.+8      	; 0x434 <__itoa_ncheck+0x12>
 42c:	bd e2       	ldi	r27, 0x2D	; 45
 42e:	90 95       	com	r25
 430:	81 95       	neg	r24
 432:	9f 4f       	sbci	r25, 0xFF	; 255
 434:	0c 94 1d 02 	jmp	0x43a	; 0x43a <__utoa_common>

00000438 <__utoa_ncheck>:
 438:	bb 27       	eor	r27, r27

0000043a <__utoa_common>:
 43a:	fb 01       	movw	r30, r22
 43c:	55 27       	eor	r21, r21
 43e:	aa 27       	eor	r26, r26
 440:	88 0f       	add	r24, r24
 442:	99 1f       	adc	r25, r25
 444:	aa 1f       	adc	r26, r26
 446:	a4 17       	cp	r26, r20
 448:	10 f0       	brcs	.+4      	; 0x44e <__utoa_common+0x14>
 44a:	a4 1b       	sub	r26, r20
 44c:	83 95       	inc	r24
 44e:	50 51       	subi	r21, 0x10	; 16
 450:	b9 f7       	brne	.-18     	; 0x440 <__utoa_common+0x6>
 452:	a0 5d       	subi	r26, 0xD0	; 208
 454:	aa 33       	cpi	r26, 0x3A	; 58
 456:	08 f0       	brcs	.+2      	; 0x45a <__utoa_common+0x20>
 458:	a9 5d       	subi	r26, 0xD9	; 217
 45a:	a1 93       	st	Z+, r26
 45c:	00 97       	sbiw	r24, 0x00	; 0
 45e:	79 f7       	brne	.-34     	; 0x43e <__utoa_common+0x4>
 460:	b1 11       	cpse	r27, r1
 462:	b1 93       	st	Z+, r27
 464:	11 92       	st	Z+, r1
 466:	cb 01       	movw	r24, r22
 468:	0c 94 36 02 	jmp	0x46c	; 0x46c <strrev>

0000046c <strrev>:
 46c:	dc 01       	movw	r26, r24
 46e:	fc 01       	movw	r30, r24
 470:	67 2f       	mov	r22, r23
 472:	71 91       	ld	r23, Z+
 474:	77 23       	and	r23, r23
 476:	e1 f7       	brne	.-8      	; 0x470 <strrev+0x4>
 478:	32 97       	sbiw	r30, 0x02	; 2
 47a:	04 c0       	rjmp	.+8      	; 0x484 <strrev+0x18>
 47c:	7c 91       	ld	r23, X
 47e:	6d 93       	st	X+, r22
 480:	70 83       	st	Z, r23
 482:	62 91       	ld	r22, -Z
 484:	ae 17       	cp	r26, r30
 486:	bf 07       	cpc	r27, r31
 488:	c8 f3       	brcs	.-14     	; 0x47c <strrev+0x10>
 48a:	08 95       	ret

0000048c <_exit>:
 48c:	f8 94       	cli

0000048e <__stop_program>:
 48e:	ff cf       	rjmp	.-2      	; 0x48e <__stop_program>
